MPASM 5.84  /HOME/U9DD/PROJECTS/GRYPANIA/PRO   10-17-2019  8:48:54         PAGE  1


LOC  OBJECT CODE     LINE SOURCE TEXT
  VALUE

                      00001     #INCLUDE <p16f84.inc>
                      00001         LIST
                      00002 
                      00003 ;==========================================================================
                      00004 ; Build date : Mar 17 2019
                      00005 ;  MPASM PIC16F84 processor include
                      00006 ; 
                      00007 ;  (c) Copyright 1999-2019 Microchip Technology, All rights reserved
                      00008 ;==========================================================================
                      00009 
                      00207         LIST
                      00002     ORG 0x00
                      00003 
0000                  00004 Start
0000   1683           00005     BSF STATUS, RP0
Message[302]: Register in operand not in bank 0.  Ensure that bank bits are correct.
0001   0185           00006     CLRF TRISA
0002   30FF           00007     MOVLW 0xFF
Message[302]: Register in operand not in bank 0.  Ensure that bank bits are correct.
0003   0086           00008     MOVWF TRISB
0004   1283           00009     BCF STATUS, RP0
                      00010 
0005                  00011 Main
0005   3096           00012     MOVLW .150
0006   0206           00013     SUBWF PORTB, W
0007   1D03           00014     BTFSS STATUS, Z
0008   2???           00015     GOTO Different
                      00016 
0009                  00017 Equal
0009   3001           00018     MOVLW .1
000A   0080           00019     MOVWF W
000B   2???           00020     GOTO Main
                      00021 
000C                  00022 Different
000C   1C03           00023     BTFSS STATUS, C
000D   2???           00024     GOTO Less
                      00025 
000E                  00026 Greater
000E   3004           00027     MOVLW .4
000F   0085           00028     MOVWF PORTA
0010   2???           00029     GOTO Main
                      00030 
0011                  00031 Less
0011   3002           00032     MOVLW .2
0012   0085           00033     MOVWF PORTA
0013   2???           00034     GOTO Main
                      00035     END
MPASM 5.84  /HOME/U9DD/PROJECTS/GRYPANIA/PRO   10-17-2019  8:48:54         PAGE  2


SYMBOL TABLE
  LABEL                             VALUE 

C                                 00000000
DC                                00000001
Different                         0000000C
EEADR                             00000009
EECON1                            00000088
EECON2                            00000089
EEDATA                            00000008
EEIE                              00000006
EEIF                              00000004
Equal                             00000009
F                                 00000001
FSR                               00000004
GIE                               00000007
Greater                           0000000E
INDF                              00000000
INTCON                            0000000B
INTE                              00000004
INTEDG                            00000006
INTF                              00000001
IRP                               00000007
Less                              00000011
Main                              00000005
NOT_PD                            00000003
NOT_RBPU                          00000007
NOT_TO                            00000004
OPTION_REG                        00000081
PCL                               00000002
PCLATH                            0000000A
PORTA                             00000005
PORTB                             00000006
PS0                               00000000
PS1                               00000001
PS2                               00000002
PSA                               00000003
RA0                               00000000
RA1                               00000001
RA2                               00000002
RA3                               00000003
RA4                               00000004
RB0                               00000000
RB1                               00000001
RB2                               00000002
RB3                               00000003
RB4                               00000004
RB5                               00000005
RB6                               00000006
RB7                               00000007
RBIE                              00000003
RBIF                              00000000
RD                                00000000
RP0                               00000005
RP1                               00000006
STATUS                            00000003
MPASM 5.84  /HOME/U9DD/PROJECTS/GRYPANIA/PRO   10-17-2019  8:48:54         PAGE  3


SYMBOL TABLE
  LABEL                             VALUE 

Start                             00000000
T0CS                              00000005
T0IE                              00000005
T0IF                              00000002
T0SE                              00000004
TMR0                              00000001
TMR0IE                            00000005
TMR0IF                            00000002
TRISA                             00000085
TRISA0                            00000000
TRISA1                            00000001
TRISA2                            00000002
TRISA3                            00000003
TRISA4                            00000004
TRISB                             00000086
TRISB0                            00000000
TRISB1                            00000001
TRISB2                            00000002
TRISB3                            00000003
TRISB4                            00000004
TRISB5                            00000005
TRISB6                            00000006
TRISB7                            00000007
W                                 00000000
WR                                00000001
WREN                              00000002
WRERR                             00000003
Z                                 00000002
_CONFIG                           00002007
_CP_OFF                           00003FFF
_CP_ON                            0000000F
_FOSC_EXTRC                       00003FFF
_FOSC_HS                          00003FFE
_FOSC_LP                          00003FFC
_FOSC_XT                          00003FFD
_HS_OSC                           00003FFE
_IDLOC0                           00002000
_IDLOC1                           00002001
_IDLOC2                           00002002
_IDLOC3                           00002003
_LP_OSC                           00003FFC
_PWRTE_OFF                        00003FFF
_PWRTE_ON                         00003FF7
_RC_OSC                           00003FFF
_WDTE_OFF                         00003FFB
_WDTE_ON                          00003FFF
_WDT_OFF                          00003FFB
_WDT_ON                           00003FFF
_XT_OSC                           00003FFD
__16F84                           00000001

MPASM 5.84  /HOME/U9DD/PROJECTS/GRYPANIA/PRO   10-17-2019  8:48:54         PAGE  4





Errors   :     0
Warnings :     0 reported,     0 suppressed
Messages :     2 reported,     0 suppressed

